target datalayout = "e-m:e-p270:32:32-p271:32:32-p272:64:64-i64:64-i128:128-f80:128-n8:16:32:64-S128"
target triple = "x86_64-pc-linux-gnu"

%"class.gmx::SelectionTreeElement" = type { i32, %struct.gmx_ana_selvalue_t, ptr, i32, %union.anon.0, ptr, ptr, %"class.std::shared_ptr", %"class.std::shared_ptr", %"class.std::__cxx11::basic_string", %"struct.gmx::SelectionLocation" }
%struct.gmx_ana_selvalue_t = type { i32, i32, %union.anon, i32 }
%union.anon = type { ptr }
%union.anon.0 = type { %struct.anon }
%struct.anon = type { ptr, ptr, ptr, ptr }
%"class.std::shared_ptr" = type { %"class.std::__shared_ptr" }
%"class.std::__shared_ptr" = type { ptr, %"class.std::__shared_count" }
%"class.std::__shared_count" = type { ptr }
%"class.std::__cxx11::basic_string" = type { %"struct.std::__cxx11::basic_string<char>::_Alloc_hider", i64, %union.anon.2 }
%"struct.std::__cxx11::basic_string<char>::_Alloc_hider" = type { ptr }
%union.anon.2 = type { i64, [8 x i8] }
%"struct.gmx::SelectionLocation" = type { i32, i32 }
%struct.t_compiler_data = type { ptr, i32, i32, ptr, ptr }
%struct.gmx_ana_index_t = type { i32, ptr, i32 }

@.str.15 = private unnamed_addr constant [5 x i8] c" %s=\00", align 1
@.str.16 = private unnamed_addr constant [7 x i8] c"(null)\00", align 1
@.str.17 = private unnamed_addr constant [15 x i8] c"(%d atoms, %p)\00", align 1
@.str.18 = private unnamed_addr constant [13 x i8] c"(static, %p)\00", align 1
@.str.19 = private unnamed_addr constant [3 x i8] c"%p\00", align 1

; Function Attrs: mustprogress nounwind uwtable
define internal void @_ZL16print_group_infoP8_IO_FILEPKcRKN3gmx20SelectionTreeElementEP15gmx_ana_index_t(ptr noundef %0, ptr noundef %1, ptr noundef nonnull align 8 dereferenceable(168) %2, ptr noundef %3) #3 {
  %5 = alloca ptr, align 8
  %6 = alloca ptr, align 8
  %7 = alloca ptr, align 8
  %8 = alloca ptr, align 8
  store ptr %0, ptr %5, align 8
  store ptr %1, ptr %6, align 8
  store ptr %2, ptr %7, align 8
  store ptr %3, ptr %8, align 8
  %9 = load ptr, ptr %5, align 8
  %10 = load ptr, ptr %6, align 8
  %11 = call i32 (ptr, ptr, ...) @fprintf(ptr noundef %9, ptr noundef @.str.15, ptr noundef %10) #11
  %12 = load ptr, ptr %8, align 8
  %13 = icmp ne ptr %12, null
  br i1 %13, label %17, label %14

14:                                               ; preds = %4
  %15 = load ptr, ptr %5, align 8
  %16 = call i32 (ptr, ptr, ...) @fprintf(ptr noundef %15, ptr noundef @.str.16) #11
  br label %55

17:                                               ; preds = %4
  %18 = load ptr, ptr %7, align 8
  %19 = getelementptr inbounds %"class.gmx::SelectionTreeElement", ptr %18, i32 0, i32 6
  %20 = load ptr, ptr %19, align 8
  %21 = getelementptr inbounds %struct.t_compiler_data, ptr %20, i32 0, i32 2
  %22 = load i32, ptr %21, align 4
  %23 = and i32 %22, 16
  %24 = icmp ne i32 %23, 0
  br i1 %24, label %25, label %32

25:                                               ; preds = %17
  %26 = load ptr, ptr %5, align 8
  %27 = load ptr, ptr %8, align 8
  %28 = getelementptr inbounds %struct.gmx_ana_index_t, ptr %27, i32 0, i32 0
  %29 = load i32, ptr %28, align 8
  %30 = load ptr, ptr %8, align 8
  %31 = call i32 (ptr, ptr, ...) @fprintf(ptr noundef %26, ptr noundef @.str.17, i32 noundef %29, ptr noundef %30) #11
  br label %54

32:                                               ; preds = %17
  %33 = load ptr, ptr %7, align 8
  %34 = getelementptr inbounds %"class.gmx::SelectionTreeElement", ptr %33, i32 0, i32 1
  %35 = getelementptr inbounds %struct.gmx_ana_selvalue_t, ptr %34, i32 0, i32 0
  %36 = load i32, ptr %35, align 8
  %37 = icmp eq i32 %36, 5
  br i1 %37, label %38, label %49

38:                                               ; preds = %32
  %39 = load ptr, ptr %8, align 8
  %40 = load ptr, ptr %7, align 8
  %41 = getelementptr inbounds %"class.gmx::SelectionTreeElement", ptr %40, i32 0, i32 1
  %42 = getelementptr inbounds %struct.gmx_ana_selvalue_t, ptr %41, i32 0, i32 2
  %43 = load ptr, ptr %42, align 8
  %44 = icmp eq ptr %39, %43
  br i1 %44, label %45, label %49

45:                                               ; preds = %38
  %46 = load ptr, ptr %5, align 8
  %47 = load ptr, ptr %8, align 8
  %48 = call i32 (ptr, ptr, ...) @fprintf(ptr noundef %46, ptr noundef @.str.18, ptr noundef %47) #11
  br label %53

49:                                               ; preds = %38, %32
  %50 = load ptr, ptr %5, align 8
  %51 = load ptr, ptr %8, align 8
  %52 = call i32 (ptr, ptr, ...) @fprintf(ptr noundef %50, ptr noundef @.str.19, ptr noundef %51) #11
  br label %53

53:                                               ; preds = %49, %45
  br label %54

54:                                               ; preds = %53, %25
  br label %55

55:                                               ; preds = %54, %14
  ret void
}