; Function Attrs: mustprogress nofree nounwind uwtable
define internal fastcc void @_ZL16print_group_infoP8_IO_FILEPKcRKN3gmx20SelectionTreeElementEP15gmx_ana_index_t(ptr nocapture noundef %0, ptr noundef %1, ptr nocapture noundef nonnull readonly align 8 dereferenceable(168) %2, ptr noundef %3) unnamed_addr #3 {
  %5 = tail call i32 (ptr, ptr, ...) @fprintf(ptr noundef %0, ptr noundef nonnull @.str.15, ptr noundef %1) #17
  %.not = icmp eq ptr %3, null
  br i1 %.not, label %6, label %8

6:                                                ; preds = %4
  %7 = tail call i64 @fwrite(ptr nonnull @.str.16, i64 6, i64 1, ptr %0)
  br label %28

8:                                                ; preds = %4
  %9 = getelementptr inbounds i8, ptr %2, i64 88
  %10 = load ptr, ptr %9, align 8
  %11 = getelementptr inbounds i8, ptr %10, i64 12
  %12 = load i32, ptr %11, align 4
  %13 = and i32 %12, 16
  %.not15 = icmp eq i32 %13, 0
  br i1 %.not15, label %17, label %14

14:                                               ; preds = %8
  %15 = load i32, ptr %3, align 8
  %16 = tail call i32 (ptr, ptr, ...) @fprintf(ptr noundef %0, ptr noundef nonnull @.str.17, i32 noundef %15, ptr noundef nonnull %3) #17
  br label %28

17:                                               ; preds = %8
  %18 = getelementptr inbounds i8, ptr %2, i64 8
  %19 = load i32, ptr %18, align 8
  %20 = icmp eq i32 %19, 5
  %21 = getelementptr inbounds i8, ptr %2, i64 16
  %22 = load ptr, ptr %21, align 8
  %23 = icmp eq ptr %22, %3
  %or.cond = select i1 %20, i1 %23, i1 false
  br i1 %or.cond, label %24, label %26

24:                                               ; preds = %17
  %25 = tail call i32 (ptr, ptr, ...) @fprintf(ptr noundef %0, ptr noundef nonnull @.str.18, ptr noundef nonnull %3) #17
  br label %28

26:                                               ; preds = %17
  %27 = tail call i32 (ptr, ptr, ...) @fprintf(ptr noundef %0, ptr noundef nonnull @.str.19, ptr noundef nonnull %3) #17
  br label %28

28:                                               ; preds = %14, %26, %24, %6
  ret void
}